(iSave_class
Player_save
p0
(dp1
S'inv_on'
p2
I01
sS'right'
p3
I01
sS'inv_temp'
p4
I0
sS'move_x'
p5
I0
sS'in_hand'
p6
(iSave_class
Torch_save
p7
(dp8
S'battery'
p9
I80
sS'on'
p10
I01
sS'flicker'
p11
I00
sS'brightness'
p12
I2
sbsS'interact'
p13
I00
sS'rect_y'
p14
I587
sS'rect_x'
p15
I194
sS'breath'
p16
F37.7000000000002
sS'on_floor'
p17
I01
sS'inventory'
p18
(lp19
g7
aNaNasS'hand_number'
p20
I0
sS'move_y'
p21
I0
sS'egg'
p22
I0
sb.